; Function Attrs: mustprogress uwtable
define void @_ZN5Ipopt11UserScaling30DetermineScalingParametersImplENS_8SmartPtrIKNS_11VectorSpaceEEES4_S4_NS1_IKNS_11MatrixSpaceEEES7_NS1_IKNS_14SymMatrixSpaceEEERKNS_6MatrixERKNS_6VectorESD_SG_RdRNS1_ISE_EESJ_SJ_(ptr nocapture noundef nonnull readonly align 8 dereferenceable(80) %0, ptr nocapture noundef readonly %1, ptr nocapture noundef readonly %2, ptr nocapture noundef readonly %3, ptr nocapture readnone %4, ptr nocapture readnone %5, ptr nocapture readnone %6, ptr nocapture nonnull readnone align 8 %7, ptr nocapture nonnull readnone align 8 %8, ptr nocapture nonnull readnone align 8 %9, ptr nocapture nonnull readnone align 8 %10, ptr noundef nonnull align 8 dereferenceable(8) %11, ptr noundef nonnull align 8 dereferenceable(8) %12, ptr noundef nonnull align 8 dereferenceable(8) %13, ptr noundef nonnull align 8 dereferenceable(8) %14) unnamed_addr #3 align 2 personality ptr @__gxx_personality_v0 {
  %16 = alloca %"class.Ipopt::SmartPtr", align 8
  %17 = alloca %"class.Ipopt::SmartPtr", align 8
  %18 = alloca %"class.Ipopt::SmartPtr", align 8
  %19 = getelementptr inbounds i8, ptr %0, i64 72
  %20 = load ptr, ptr %19, align 8
  %21 = load ptr, ptr %1, align 8
  %.not.i.i.i = icmp eq ptr %21, null
  br i1 %.not.i.i.i, label %_ZN5Ipopt8SmartPtrIKNS_11VectorSpaceEEC2ERKS3_.exit, label %22

22:                                               ; preds = %15
  %23 = getelementptr inbounds i8, ptr %21, i64 8
  %24 = load i32, ptr %23, align 8
  %25 = add nsw i32 %24, 1
  store i32 %25, ptr %23, align 8
  br label %_ZN5Ipopt8SmartPtrIKNS_11VectorSpaceEEC2ERKS3_.exit

_ZN5Ipopt8SmartPtrIKNS_11VectorSpaceEEC2ERKS3_.exit: ; preds = %22, %15
  store ptr %21, ptr %16, align 8
  %26 = load ptr, ptr %2, align 8
  %.not.i.i.i10 = icmp eq ptr %26, null
  br i1 %.not.i.i.i10, label %31, label %27

27:                                               ; preds = %_ZN5Ipopt8SmartPtrIKNS_11VectorSpaceEEC2ERKS3_.exit
  %28 = getelementptr inbounds i8, ptr %26, i64 8
  %29 = load i32, ptr %28, align 8
  %30 = add nsw i32 %29, 1
  store i32 %30, ptr %28, align 8
  br label %31

31:                                               ; preds = %_ZN5Ipopt8SmartPtrIKNS_11VectorSpaceEEC2ERKS3_.exit, %27
  store ptr %26, ptr %17, align 8
  %32 = load ptr, ptr %3, align 8
  %.not.i.i.i14 = icmp eq ptr %32, null
  br i1 %.not.i.i.i14, label %37, label %33

33:                                               ; preds = %31
  %34 = getelementptr inbounds i8, ptr %32, i64 8
  %35 = load i32, ptr %34, align 8
  %36 = add nsw i32 %35, 1
  store i32 %36, ptr %34, align 8
  br label %37

37:                                               ; preds = %31, %33
  store ptr %32, ptr %18, align 8
  %38 = load ptr, ptr %20, align 8
  %39 = getelementptr inbounds i8, ptr %38, i64 128
  %40 = load ptr, ptr %39, align 8
  invoke void %40(ptr noundef nonnull align 8 dereferenceable(12) %20, ptr noundef nonnull %16, ptr noundef nonnull %17, ptr noundef nonnull %18, ptr noundef nonnull align 8 dereferenceable(8) %11, ptr noundef nonnull align 8 dereferenceable(8) %12, ptr noundef nonnull align 8 dereferenceable(8) %13, ptr noundef nonnull align 8 dereferenceable(8) %14)
          to label %41 unwind label %72

41:                                               ; preds = %37
  %42 = load ptr, ptr %18, align 8
  %.not.i.i = icmp eq ptr %42, null
  br i1 %.not.i.i, label %_ZN5Ipopt8SmartPtrIKNS_11VectorSpaceEED2Ev.exit, label %43

43:                                               ; preds = %41
  %44 = getelementptr inbounds i8, ptr %42, i64 8
  %45 = load i32, ptr %44, align 8
  %46 = add nsw i32 %45, -1
  store i32 %46, ptr %44, align 8
  %47 = icmp eq i32 %46, 0
  br i1 %47, label %48, label %_ZN5Ipopt8SmartPtrIKNS_11VectorSpaceEED2Ev.exit

48:                                               ; preds = %43
  %49 = load ptr, ptr %42, align 8
  %50 = getelementptr inbounds i8, ptr %49, i64 8
  %51 = load ptr, ptr %50, align 8
  call void %51(ptr noundef nonnull align 8 dereferenceable(16) %42) #7
  br label %_ZN5Ipopt8SmartPtrIKNS_11VectorSpaceEED2Ev.exit

_ZN5Ipopt8SmartPtrIKNS_11VectorSpaceEED2Ev.exit:  ; preds = %41, %43, %48
  %52 = load ptr, ptr %17, align 8
  %.not.i.i18 = icmp eq ptr %52, null
  br i1 %.not.i.i18, label %_ZN5Ipopt8SmartPtrIKNS_11VectorSpaceEED2Ev.exit19, label %53

53:                                               ; preds = %_ZN5Ipopt8SmartPtrIKNS_11VectorSpaceEED2Ev.exit
  %54 = getelementptr inbounds i8, ptr %52, i64 8
  %55 = load i32, ptr %54, align 8
  %56 = add nsw i32 %55, -1
  store i32 %56, ptr %54, align 8
  %57 = icmp eq i32 %56, 0
  br i1 %57, label %58, label %_ZN5Ipopt8SmartPtrIKNS_11VectorSpaceEED2Ev.exit19

58:                                               ; preds = %53
  %59 = load ptr, ptr %52, align 8
  %60 = getelementptr inbounds i8, ptr %59, i64 8
  %61 = load ptr, ptr %60, align 8
  call void %61(ptr noundef nonnull align 8 dereferenceable(16) %52) #7
  br label %_ZN5Ipopt8SmartPtrIKNS_11VectorSpaceEED2Ev.exit19

_ZN5Ipopt8SmartPtrIKNS_11VectorSpaceEED2Ev.exit19: ; preds = %_ZN5Ipopt8SmartPtrIKNS_11VectorSpaceEED2Ev.exit, %53, %58
  %62 = load ptr, ptr %16, align 8
  %.not.i.i20 = icmp eq ptr %62, null
  br i1 %.not.i.i20, label %_ZN5Ipopt8SmartPtrIKNS_11VectorSpaceEED2Ev.exit21, label %63

63:                                               ; preds = %_ZN5Ipopt8SmartPtrIKNS_11VectorSpaceEED2Ev.exit19
  %64 = getelementptr inbounds i8, ptr %62, i64 8
  %65 = load i32, ptr %64, align 8
  %66 = add nsw i32 %65, -1
  store i32 %66, ptr %64, align 8
  %67 = icmp eq i32 %66, 0
  br i1 %67, label %68, label %_ZN5Ipopt8SmartPtrIKNS_11VectorSpaceEED2Ev.exit21

68:                                               ; preds = %63
  %69 = load ptr, ptr %62, align 8
  %70 = getelementptr inbounds i8, ptr %69, i64 8
  %71 = load ptr, ptr %70, align 8
  call void %71(ptr noundef nonnull align 8 dereferenceable(16) %62) #7
  br label %_ZN5Ipopt8SmartPtrIKNS_11VectorSpaceEED2Ev.exit21

_ZN5Ipopt8SmartPtrIKNS_11VectorSpaceEED2Ev.exit21: ; preds = %_ZN5Ipopt8SmartPtrIKNS_11VectorSpaceEED2Ev.exit19, %63, %68
  ret void

72:                                               ; preds = %37
  %73 = landingpad { ptr, i32 }
          cleanup
  %74 = load ptr, ptr %18, align 8
  %.not.i.i22 = icmp eq ptr %74, null
  br i1 %.not.i.i22, label %_ZN5Ipopt8SmartPtrIKNS_11VectorSpaceEED2Ev.exit23, label %75

75:                                               ; preds = %72
  %76 = getelementptr inbounds i8, ptr %74, i64 8
  %77 = load i32, ptr %76, align 8
  %78 = add nsw i32 %77, -1
  store i32 %78, ptr %76, align 8
  %79 = icmp eq i32 %78, 0
  br i1 %79, label %80, label %_ZN5Ipopt8SmartPtrIKNS_11VectorSpaceEED2Ev.exit23

80:                                               ; preds = %75
  %81 = load ptr, ptr %74, align 8
  %82 = getelementptr inbounds i8, ptr %81, i64 8
  %83 = load ptr, ptr %82, align 8
  call void %83(ptr noundef nonnull align 8 dereferenceable(16) %74) #7
  br label %_ZN5Ipopt8SmartPtrIKNS_11VectorSpaceEED2Ev.exit23

_ZN5Ipopt8SmartPtrIKNS_11VectorSpaceEED2Ev.exit23: ; preds = %80, %75, %72
  %84 = load ptr, ptr %17, align 8
  %.not.i.i24 = icmp eq ptr %84, null
  br i1 %.not.i.i24, label %_ZN5Ipopt8SmartPtrIKNS_11VectorSpaceEED2Ev.exit25, label %85

85:                                               ; preds = %_ZN5Ipopt8SmartPtrIKNS_11VectorSpaceEED2Ev.exit23
  %86 = getelementptr inbounds i8, ptr %84, i64 8
  %87 = load i32, ptr %86, align 8
  %88 = add nsw i32 %87, -1
  store i32 %88, ptr %86, align 8
  %89 = icmp eq i32 %88, 0
  br i1 %89, label %90, label %_ZN5Ipopt8SmartPtrIKNS_11VectorSpaceEED2Ev.exit25

90:                                               ; preds = %85
  %91 = load ptr, ptr %84, align 8
  %92 = getelementptr inbounds i8, ptr %91, i64 8
  %93 = load ptr, ptr %92, align 8
  call void %93(ptr noundef nonnull align 8 dereferenceable(16) %84) #7
  br label %_ZN5Ipopt8SmartPtrIKNS_11VectorSpaceEED2Ev.exit25

_ZN5Ipopt8SmartPtrIKNS_11VectorSpaceEED2Ev.exit25: ; preds = %90, %85, %_ZN5Ipopt8SmartPtrIKNS_11VectorSpaceEED2Ev.exit23
  %94 = load ptr, ptr %16, align 8
  %.not.i.i26 = icmp eq ptr %94, null
  br i1 %.not.i.i26, label %_ZN5Ipopt8SmartPtrIKNS_11VectorSpaceEED2Ev.exit27, label %95

95:                                               ; preds = %_ZN5Ipopt8SmartPtrIKNS_11VectorSpaceEED2Ev.exit25
  %96 = getelementptr inbounds i8, ptr %94, i64 8
  %97 = load i32, ptr %96, align 8
  %98 = add nsw i32 %97, -1
  store i32 %98, ptr %96, align 8
  %99 = icmp eq i32 %98, 0
  br i1 %99, label %100, label %_ZN5Ipopt8SmartPtrIKNS_11VectorSpaceEED2Ev.exit27

100:                                              ; preds = %95
  %101 = load ptr, ptr %94, align 8
  %102 = getelementptr inbounds i8, ptr %101, i64 8
  %103 = load ptr, ptr %102, align 8
  call void %103(ptr noundef nonnull align 8 dereferenceable(16) %94) #7
  br label %_ZN5Ipopt8SmartPtrIKNS_11VectorSpaceEED2Ev.exit27

_ZN5Ipopt8SmartPtrIKNS_11VectorSpaceEED2Ev.exit27: ; preds = %_ZN5Ipopt8SmartPtrIKNS_11VectorSpaceEED2Ev.exit25, %95, %100
  resume { ptr, i32 } %73
}